target datalayout = "e-m:e-p270:32:32-p271:32:32-p272:64:64-i64:64-i128:128-f80:128-n8:16:32:64-S128"
target triple = "x86_64-unknown-linux-gnu"

%"class.llvh::StringRef" = type { ptr, i64 }
%"struct.std::atomic" = type { %"struct.std::__atomic_base" }
%"struct.std::__atomic_base" = type { ptr }
%"class.llvh::SmallPtrSet" = type { %"class.llvh::SmallPtrSetImpl.base", [4 x ptr] }
%"class.llvh::SmallPtrSetImpl.base" = type { %"class.llvh::SmallPtrSetImplBase.base" }
%"class.llvh::SmallPtrSetImplBase.base" = type <{ ptr, ptr, i32, i32, i32 }>
%"class.std::__cxx11::basic_string" = type { %"struct.std::__cxx11::basic_string<char>::_Alloc_hider", i64, %union.anon }
%"struct.std::__cxx11::basic_string<char>::_Alloc_hider" = type { ptr }
%union.anon = type { i64, [8 x i8] }
%"class.(anonymous namespace)::CommandLineParser" = type { %"class.std::__cxx11::basic_string", %"class.llvh::StringRef", %"class.std::vector", %"class.llvh::SmallPtrSet.45", %"class.llvh::SmallPtrSet", ptr }
%"class.std::vector" = type { %"struct.std::_Vector_base" }
%"struct.std::_Vector_base" = type { %"struct.std::_Vector_base<llvh::StringRef, std::allocator<llvh::StringRef>>::_Vector_impl" }
%"struct.std::_Vector_base<llvh::StringRef, std::allocator<llvh::StringRef>>::_Vector_impl" = type { %"struct.std::_Vector_base<llvh::StringRef, std::allocator<llvh::StringRef>>::_Vector_impl_data" }
%"struct.std::_Vector_base<llvh::StringRef, std::allocator<llvh::StringRef>>::_Vector_impl_data" = type { ptr, ptr, ptr }
%"class.llvh::SmallPtrSet.45" = type { %"class.llvh::SmallPtrSetImpl.base.47", [16 x ptr] }
%"class.llvh::SmallPtrSetImpl.base.47" = type { %"class.llvh::SmallPtrSetImplBase.base" }
%"class.llvh::ManagedStaticBase" = type { %"struct.std::atomic", ptr, ptr }

@_ZL12GlobalParser = internal global { %"struct.std::atomic", ptr, ptr } zeroinitializer, align 8

; Function Attrs: mustprogress nounwind uwtable
define linkonce_odr noundef i32 @_ZStanSt12memory_orderSt23__memory_order_modifier(i32 noundef %__m, i32 noundef %__mod) #0 comdat {
entry:
  %__m.addr = alloca i32, align 4
  %__mod.addr = alloca i32, align 4
  store i32 %__m, ptr %__m.addr, align 4
  store i32 %__mod, ptr %__mod.addr, align 4
  %0 = load i32, ptr %__m.addr, align 4
  %1 = load i32, ptr %__mod.addr, align 4
  %and = and i32 %0, %1
  ret i32 %and
}

; Function Attrs: mustprogress nounwind uwtable
define linkonce_odr noundef ptr @_ZNKSt6atomicIPvE4loadESt12memory_order(ptr noundef nonnull align 8 dereferenceable(8) %this, i32 noundef %__m) #0 comdat align 2 {
entry:
  %this.addr.i = alloca ptr, align 8
  %__m.addr.i = alloca i32, align 4
  %__b.i = alloca i32, align 4
  %atomic-temp.i = alloca ptr, align 8
  %this.addr = alloca ptr, align 8
  %__m.addr = alloca i32, align 4
  store ptr %this, ptr %this.addr, align 8
  store i32 %__m, ptr %__m.addr, align 4
  %this1 = load ptr, ptr %this.addr, align 8
  %_M_b = getelementptr inbounds %"struct.std::atomic", ptr %this1, i32 0, i32 0
  %0 = load i32, ptr %__m.addr, align 4
  store ptr %_M_b, ptr %this.addr.i, align 8
  store i32 %0, ptr %__m.addr.i, align 4
  %this1.i = load ptr, ptr %this.addr.i, align 8
  %1 = load i32, ptr %__m.addr.i, align 4
  %call.i = call noundef i32 @_ZStanSt12memory_orderSt23__memory_order_modifier(i32 noundef %1, i32 noundef 65535)
  store i32 %call.i, ptr %__b.i, align 4
  %2 = load i32, ptr %__m.addr.i, align 4
  switch i32 %2, label %monotonic.i [
    i32 1, label %acquire.i
    i32 2, label %acquire.i
    i32 5, label %seqcst.i
  ]

monotonic.i:                                      ; preds = %entry
  %3 = load atomic i64, ptr %this1.i monotonic, align 8
  store i64 %3, ptr %atomic-temp.i, align 8
  br label %_ZNKSt13__atomic_baseIPvE4loadESt12memory_order.exit

acquire.i:                                        ; preds = %entry, %entry
  %4 = load atomic i64, ptr %this1.i acquire, align 8
  store i64 %4, ptr %atomic-temp.i, align 8
  br label %_ZNKSt13__atomic_baseIPvE4loadESt12memory_order.exit

seqcst.i:                                         ; preds = %entry
  %5 = load atomic i64, ptr %this1.i seq_cst, align 8
  store i64 %5, ptr %atomic-temp.i, align 8
  br label %_ZNKSt13__atomic_baseIPvE4loadESt12memory_order.exit

_ZNKSt13__atomic_baseIPvE4loadESt12memory_order.exit: ; preds = %seqcst.i, %acquire.i, %monotonic.i
  %6 = load ptr, ptr %atomic-temp.i, align 8
  ret ptr %6
}

; Function Attrs: mustprogress nounwind uwtable
define internal noundef nonnull align 8 dereferenceable(304) ptr @_ZN4llvh13ManagedStaticIN12_GLOBAL__N_117CommandLineParserENS_14object_creatorIS2_EENS_14object_deleterIS2_EEEdeEv(ptr noundef nonnull align 8 dereferenceable(24) %this) #0 align 2 {
entry:
  %this.addr = alloca ptr, align 8
  %Tmp = alloca ptr, align 8
  store ptr %this, ptr %this.addr, align 8
  %this1 = load ptr, ptr %this.addr, align 8
  %Ptr = getelementptr inbounds %"class.llvh::ManagedStaticBase", ptr %this1, i32 0, i32 0
  %call = call noundef ptr @_ZNKSt6atomicIPvE4loadESt12memory_order(ptr noundef nonnull align 8 dereferenceable(8) %Ptr, i32 noundef 2) #6
  store ptr %call, ptr %Tmp, align 8
  %0 = load ptr, ptr %Tmp, align 8
  %tobool = icmp ne ptr %0, null
  br i1 %tobool, label %if.end, label %if.then

if.then:                                          ; preds = %entry
  call void @_ZNK4llvh17ManagedStaticBase21RegisterManagedStaticEPFPvvEPFvS1_E(ptr noundef nonnull align 8 dereferenceable(24) %this1, ptr noundef @_ZN4llvh14object_creatorIN12_GLOBAL__N_117CommandLineParserEE4callEv, ptr noundef @_ZN4llvh14object_deleterIN12_GLOBAL__N_117CommandLineParserEE4callEPv)
  br label %if.end

if.end:                                           ; preds = %if.then, %entry
  %Ptr2 = getelementptr inbounds %"class.llvh::ManagedStaticBase", ptr %this1, i32 0, i32 0
  %call3 = call noundef ptr @_ZNKSt6atomicIPvE4loadESt12memory_order(ptr noundef nonnull align 8 dereferenceable(8) %Ptr2, i32 noundef 0) #6
  ret ptr %call3
}

; Function Attrs: mustprogress nounwind uwtable
define internal noundef ptr @_ZN12_GLOBAL__N_117CommandLineParser19getActiveSubCommandEv(ptr noundef nonnull align 8 dereferenceable(304) %this) #0 align 2 {
entry:
  %this.addr = alloca ptr, align 8
  store ptr %this, ptr %this.addr, align 8
  %this1 = load ptr, ptr %this.addr, align 8
  %ActiveSubCommand = getelementptr inbounds %"class.(anonymous namespace)::CommandLineParser", ptr %this1, i32 0, i32 5
  %0 = load ptr, ptr %ActiveSubCommand, align 8
  ret ptr %0
}

; Function Attrs: mustprogress nounwind uwtable
define internal noundef ptr @_ZN4llvh13ManagedStaticIN12_GLOBAL__N_117CommandLineParserENS_14object_creatorIS2_EENS_14object_deleterIS2_EEEptEv(ptr noundef nonnull align 8 dereferenceable(24) %this) #0 align 2 {
entry:
  %this.addr = alloca ptr, align 8
  store ptr %this, ptr %this.addr, align 8
  %this1 = load ptr, ptr %this.addr, align 8
  %call = call noundef nonnull align 8 dereferenceable(304) ptr @_ZN4llvh13ManagedStaticIN12_GLOBAL__N_117CommandLineParserENS_14object_creatorIS2_EENS_14object_deleterIS2_EEEdeEv(ptr noundef nonnull align 8 dereferenceable(24) %this1)
  ret ptr %call
}

; Function Attrs: mustprogress nounwind uwtable
define hidden noundef zeroext i1 @_ZNK4llvh2cl10SubCommandcvbEv(ptr noundef nonnull align 8 dereferenceable(168) %this) #0 align 2 {
entry:
  %this.addr = alloca ptr, align 8
  store ptr %this, ptr %this.addr, align 8
  %this1 = load ptr, ptr %this.addr, align 8
  %call = call noundef ptr @_ZN4llvh13ManagedStaticIN12_GLOBAL__N_117CommandLineParserENS_14object_creatorIS2_EENS_14object_deleterIS2_EEEptEv(ptr noundef nonnull align 8 dereferenceable(24) @_ZL12GlobalParser)
  %call2 = call noundef ptr @_ZN12_GLOBAL__N_117CommandLineParser19getActiveSubCommandEv(ptr noundef nonnull align 8 dereferenceable(304) %call)
  %cmp = icmp eq ptr %call2, %this1
  ret i1 %cmp
}